; Function Attrs: nounwind uwtable
define ptr @l_Lean_SMap_switch___rarg(ptr readnone captures(none) %0, ptr readnone captures(none) %1, ptr noundef %2) local_unnamed_addr #0 {
  %4 = getelementptr i8, ptr %2, i64 24
  %.val = load i8, ptr %4, align 1, !tbaa !16
  %5 = icmp eq i8 %.val, 0
  br i1 %5, label %46, label %6

6:                                                ; preds = %3
  %.val21 = load i32, ptr %2, align 4, !tbaa !10
  %7 = icmp eq i32 %.val21, 1
  br i1 %7, label %8, label %9

8:                                                ; preds = %6
  store i8 0, ptr %4, align 1, !tbaa !16
  br label %46

9:                                                ; preds = %6
  %10 = getelementptr inbounds nuw i8, ptr %2, i64 8
  %11 = load ptr, ptr %10, align 8, !tbaa !4
  %12 = getelementptr inbounds nuw i8, ptr %2, i64 16
  %13 = load ptr, ptr %12, align 8, !tbaa !4
  %14 = ptrtoint ptr %13 to i64
  %15 = and i64 %14, 1
  %.not = icmp eq i64 %15, 0
  br i1 %.not, label %16, label %lean_inc.exit20

16:                                               ; preds = %9
  %.val.i = load i32, ptr %13, align 4, !tbaa !10
  %17 = icmp sgt i32 %.val.i, 0
  br i1 %17, label %18, label %20, !prof !15

18:                                               ; preds = %16
  %19 = add nuw i32 %.val.i, 1
  store i32 %19, ptr %13, align 4, !tbaa !10
  br label %lean_inc.exit20

20:                                               ; preds = %16
  %.not.i22 = icmp eq i32 %.val.i, 0
  br i1 %.not.i22, label %lean_inc.exit20, label %21

21:                                               ; preds = %20
  tail call void @lean_inc_ref_cold(ptr noundef nonnull %13) #3
  br label %lean_inc.exit20

lean_inc.exit20:                                  ; preds = %21, %20, %18, %9
  %22 = ptrtoint ptr %11 to i64
  %23 = and i64 %22, 1
  %.not26 = icmp eq i64 %23, 0
  br i1 %.not26, label %24, label %lean_inc.exit

24:                                               ; preds = %lean_inc.exit20
  %.val.i23 = load i32, ptr %11, align 4, !tbaa !10
  %25 = icmp sgt i32 %.val.i23, 0
  br i1 %25, label %26, label %28, !prof !15

26:                                               ; preds = %24
  %27 = add nuw i32 %.val.i23, 1
  store i32 %27, ptr %11, align 4, !tbaa !10
  br label %lean_inc.exit

28:                                               ; preds = %24
  %.not.i24 = icmp eq i32 %.val.i23, 0
  br i1 %.not.i24, label %lean_inc.exit, label %29

29:                                               ; preds = %28
  tail call void @lean_inc_ref_cold(ptr noundef nonnull %11) #3
  br label %lean_inc.exit

lean_inc.exit:                                    ; preds = %29, %28, %26, %lean_inc.exit20
  %30 = ptrtoint ptr %2 to i64
  %31 = and i64 %30, 1
  %.not27 = icmp eq i64 %31, 0
  br i1 %.not27, label %32, label %lean_dec.exit

32:                                               ; preds = %lean_inc.exit
  %33 = load i32, ptr %2, align 4, !tbaa !10
  %34 = icmp sgt i32 %33, 1
  br i1 %34, label %35, label %37, !prof !15

35:                                               ; preds = %32
  %36 = add nsw i32 %33, -1
  store i32 %36, ptr %2, align 4, !tbaa !10
  br label %lean_dec.exit

37:                                               ; preds = %32
  %.not.i = icmp eq i32 %33, 0
  br i1 %.not.i, label %lean_dec.exit, label %38

38:                                               ; preds = %37
  tail call void @lean_dec_ref_cold(ptr noundef nonnull %2) #3
  br label %lean_dec.exit

lean_dec.exit:                                    ; preds = %38, %37, %35, %lean_inc.exit
  tail call void @lean_inc_heartbeat() #3
  %39 = tail call noalias ptr @mi_malloc_small(i64 noundef 32) #3
  %40 = icmp eq ptr %39, null
  br i1 %40, label %41, label %lean_alloc_ctor.exit

41:                                               ; preds = %lean_dec.exit
  tail call void @lean_internal_panic_out_of_memory() #4
  unreachable

lean_alloc_ctor.exit:                             ; preds = %lean_dec.exit
  %42 = getelementptr inbounds nuw i8, ptr %39, i64 4
  %43 = getelementptr inbounds nuw i8, ptr %39, i64 24
  store i64 0, ptr %43, align 8, !tbaa !8
  store i32 1, ptr %39, align 4, !tbaa !10
  store i32 131104, ptr %42, align 4
  %44 = getelementptr inbounds nuw i8, ptr %39, i64 8
  store ptr %11, ptr %44, align 8, !tbaa !4
  %45 = getelementptr inbounds nuw i8, ptr %39, i64 16
  store ptr %13, ptr %45, align 8, !tbaa !4
  br label %46

46:                                               ; preds = %8, %lean_alloc_ctor.exit, %3
  %.0 = phi ptr [ %2, %3 ], [ %2, %8 ], [ %39, %lean_alloc_ctor.exit ]
  ret ptr %.0
}